; Function Attrs: mustprogress uwtable
define void @_ZN8proxygen12HPACKEncoder12encodeHeaderEONS_15HPACKHeaderNameEN5folly5RangeIPKcEE(ptr noundef nonnull align 8 dereferenceable(236) %this, ptr noundef nonnull align 8 dereferenceable(8) %name, ptr %value.coerce0, ptr %value.coerce1) local_unnamed_addr #3 align 2 {
entry:
  %indexable = alloca i8, align 1
  %nameIndex = alloca %"class.folly::Optional", align 4
  store i8 0, ptr %indexable, align 1
  call void @_ZN8proxygen12HPACKEncoder16encodeHeaderImplERKNS_15HPACKHeaderNameEN5folly5RangeIPKcEERb(ptr nonnull sret(%"class.folly::Optional") align 4 %nameIndex, ptr noundef nonnull align 8 dereferenceable(236) %this, ptr noundef nonnull align 8 dereferenceable(8) %name, ptr %value.coerce0, ptr %value.coerce1, ptr noundef nonnull align 1 dereferenceable(1) %indexable)
  %hasValue.i.i = getelementptr inbounds i8, ptr %nameIndex, i64 4
  %0 = load i8, ptr %hasValue.i.i, align 4
  %1 = and i8 %0, 1
  %tobool.i.i.not = icmp eq i8 %1, 0
  br i1 %tobool.i.i.not, label %if.end, label %_ZNR5folly8OptionalIjEdeEv.exit

_ZNR5folly8OptionalIjEdeEv.exit:                  ; preds = %entry
  %2 = load i32, ptr %nameIndex, align 4
  %3 = load i8, ptr %indexable, align 1
  %4 = and i8 %3, 1
  %tobool = icmp ne i8 %4, 0
  %call4 = tail call noundef zeroext i1 @_ZN8proxygen12HPACKEncoder15encodeAsLiteralEONS_15HPACKHeaderNameEjN5folly5RangeIPKcEEb(ptr noundef nonnull align 8 dereferenceable(236) %this, ptr noundef nonnull align 8 dereferenceable(8) %name, i32 noundef %2, ptr %value.coerce0, ptr %value.coerce1, i1 noundef zeroext %tobool)
  br label %if.end

if.end:                                           ; preds = %_ZNR5folly8OptionalIjEdeEv.exit, %entry
  ret void
}